target datalayout = "e-m:e-p270:32:32-p271:32:32-p272:64:64-i64:64-i128:128-f80:128-n8:16:32:64-S128"
target triple = "x86_64-pc-linux-gnu"

%struct.BuildCtx = type { ptr, i32, ptr, ptr, ptr, ptr, i64, i32, i32, i32, i32, i32, ptr, ptr, ptr, ptr, ptr, ptr, ptr, ptr, ptr, [200 x %struct.BuildReloc] }
%struct.BuildReloc = type { i32, i32, i32 }
%struct.dasm_State = type { i64, ptr, ptr, i64, ptr, i64, ptr, ptr, i64, i32, i32, [1 x %struct.dasm_Section] }
%struct.dasm_Section = type { ptr, ptr, i64, i32, i32, i32 }

; Function Attrs: nounwind uwtable
define dso_local i32 @dasm_checkstep(ptr noundef %0, i32 noundef %1) #0 {
  %3 = alloca ptr, align 8
  %4 = alloca i32, align 4
  %5 = alloca ptr, align 8
  %6 = alloca i32, align 4
  store ptr %0, ptr %3, align 8, !tbaa !4
  store i32 %1, ptr %4, align 4, !tbaa !9
  call void @llvm.lifetime.start.p0(i64 8, ptr %5) #12
  %7 = load ptr, ptr %3, align 8, !tbaa !4
  %8 = getelementptr inbounds nuw %struct.BuildCtx, ptr %7, i32 0, i32 0
  %9 = load ptr, ptr %8, align 8, !tbaa !13
  store ptr %9, ptr %5, align 8, !tbaa !23
  %10 = load ptr, ptr %5, align 8, !tbaa !23
  %11 = getelementptr inbounds nuw %struct.dasm_State, ptr %10, i32 0, i32 10
  %12 = load i32, ptr %11, align 4, !tbaa !40
  %13 = icmp eq i32 %12, 0
  br i1 %13, label %14, label %43

14:                                               ; preds = %2
  call void @llvm.lifetime.start.p0(i64 4, ptr %6) #12
  store i32 1, ptr %6, align 4, !tbaa !9
  br label %15

15:                                               ; preds = %39, %14
  %16 = load i32, ptr %6, align 4, !tbaa !9
  %17 = icmp sle i32 %16, 9
  br i1 %17, label %18, label %42

18:                                               ; preds = %15
  %19 = load ptr, ptr %5, align 8, !tbaa !23
  %20 = getelementptr inbounds nuw %struct.dasm_State, ptr %19, i32 0, i32 2
  %21 = load ptr, ptr %20, align 8, !tbaa !27
  %22 = load i32, ptr %6, align 4, !tbaa !9
  %23 = sext i32 %22 to i64
  %24 = getelementptr inbounds i32, ptr %21, i64 %23
  %25 = load i32, ptr %24, align 4, !tbaa !9
  %26 = icmp sgt i32 %25, 0
  br i1 %26, label %27, label %32

27:                                               ; preds = %18
  %28 = load i32, ptr %6, align 4, !tbaa !9
  %29 = or i32 553648128, %28
  %30 = load ptr, ptr %5, align 8, !tbaa !23
  %31 = getelementptr inbounds nuw %struct.dasm_State, ptr %30, i32 0, i32 10
  store i32 %29, ptr %31, align 4, !tbaa !40
  br label %42

32:                                               ; preds = %18
  %33 = load ptr, ptr %5, align 8, !tbaa !23
  %34 = getelementptr inbounds nuw %struct.dasm_State, ptr %33, i32 0, i32 2
  %35 = load ptr, ptr %34, align 8, !tbaa !27
  %36 = load i32, ptr %6, align 4, !tbaa !9
  %37 = sext i32 %36 to i64
  %38 = getelementptr inbounds i32, ptr %35, i64 %37
  store i32 0, ptr %38, align 4, !tbaa !9
  br label %39

39:                                               ; preds = %32
  %40 = load i32, ptr %6, align 4, !tbaa !9
  %41 = add nsw i32 %40, 1
  store i32 %41, ptr %6, align 4, !tbaa !9
  br label %15, !llvm.loop !77

42:                                               ; preds = %27, %15
  call void @llvm.lifetime.end.p0(i64 4, ptr %6) #12
  br label %43

43:                                               ; preds = %42, %2
  %44 = load ptr, ptr %5, align 8, !tbaa !23
  %45 = getelementptr inbounds nuw %struct.dasm_State, ptr %44, i32 0, i32 10
  %46 = load i32, ptr %45, align 4, !tbaa !40
  %47 = icmp eq i32 %46, 0
  br i1 %47, label %48, label %76

48:                                               ; preds = %43
  %49 = load i32, ptr %4, align 4, !tbaa !9
  %50 = icmp sge i32 %49, 0
  br i1 %50, label %51, label %76

51:                                               ; preds = %48
  %52 = load ptr, ptr %5, align 8, !tbaa !23
  %53 = getelementptr inbounds nuw %struct.dasm_State, ptr %52, i32 0, i32 7
  %54 = load ptr, ptr %53, align 8, !tbaa !41
  %55 = load ptr, ptr %5, align 8, !tbaa !23
  %56 = getelementptr inbounds nuw %struct.dasm_State, ptr %55, i32 0, i32 11
  %57 = load i32, ptr %4, align 4, !tbaa !9
  %58 = sext i32 %57 to i64
  %59 = getelementptr inbounds [1 x %struct.dasm_Section], ptr %56, i64 0, i64 %58
  %60 = icmp ne ptr %54, %59
  br i1 %60, label %61, label %76

61:                                               ; preds = %51
  %62 = load ptr, ptr %5, align 8, !tbaa !23
  %63 = getelementptr inbounds nuw %struct.dasm_State, ptr %62, i32 0, i32 7
  %64 = load ptr, ptr %63, align 8, !tbaa !41
  %65 = load ptr, ptr %5, align 8, !tbaa !23
  %66 = getelementptr inbounds nuw %struct.dasm_State, ptr %65, i32 0, i32 11
  %67 = getelementptr inbounds [1 x %struct.dasm_Section], ptr %66, i64 0, i64 0
  %68 = ptrtoint ptr %64 to i64
  %69 = ptrtoint ptr %67 to i64
  %70 = sub i64 %68, %69
  %71 = sdiv exact i64 %70, 40
  %72 = trunc i64 %71 to i32
  %73 = or i32 50331648, %72
  %74 = load ptr, ptr %5, align 8, !tbaa !23
  %75 = getelementptr inbounds nuw %struct.dasm_State, ptr %74, i32 0, i32 10
  store i32 %73, ptr %75, align 4, !tbaa !40
  br label %76

76:                                               ; preds = %61, %51, %48, %43
  %77 = load ptr, ptr %5, align 8, !tbaa !23
  %78 = getelementptr inbounds nuw %struct.dasm_State, ptr %77, i32 0, i32 10
  %79 = load i32, ptr %78, align 4, !tbaa !40
  call void @llvm.lifetime.end.p0(i64 8, ptr %5) #12
  ret i32 %79
}