; Function Attrs: nofree norecurse nosync nounwind memory(readwrite, inaccessiblemem: none) uwtable
define dso_local i32 @dasm_checkstep(ptr noundef readonly captures(none) %0, i32 noundef %1) local_unnamed_addr #7 {
  %3 = load ptr, ptr %0, align 8, !tbaa !4
  %4 = getelementptr inbounds nuw i8, ptr %3, i64 76
  %5 = load i32, ptr %4, align 4, !tbaa !34
  %6 = icmp eq i32 %5, 0
  br i1 %6, label %.preheader, label %.loopexit.thread

.preheader:                                       ; preds = %2
  %7 = getelementptr inbounds nuw i8, ptr %3, i64 16
  %8 = load ptr, ptr %7, align 8, !tbaa !27
  br label %9

9:                                                ; preds = %.preheader, %13
  %indvars.iv = phi i64 [ 1, %.preheader ], [ %indvars.iv.next, %13 ]
  %10 = getelementptr inbounds nuw i32, ptr %8, i64 %indvars.iv
  %11 = load i32, ptr %10, align 4, !tbaa !43
  %12 = icmp sgt i32 %11, 0
  br i1 %12, label %.loopexit.thread.sink.split, label %13

13:                                               ; preds = %9
  store i32 0, ptr %10, align 4, !tbaa !43
  %indvars.iv.next = add nuw nsw i64 %indvars.iv, 1
  %exitcond.not = icmp eq i64 %indvars.iv.next, 10
  br i1 %exitcond.not, label %.loopexit, label %9, !llvm.loop !69

.loopexit:                                        ; preds = %13
  %.pre = load i32, ptr %4, align 4, !tbaa !34
  %14 = icmp eq i32 %.pre, 0
  %15 = icmp sgt i32 %1, -1
  %or.cond = and i1 %15, %14
  br i1 %or.cond, label %16, label %.loopexit.thread

16:                                               ; preds = %.loopexit
  %17 = getelementptr inbounds nuw i8, ptr %3, i64 56
  %18 = load ptr, ptr %17, align 8, !tbaa !35
  %19 = getelementptr inbounds nuw i8, ptr %3, i64 80
  %20 = zext nneg i32 %1 to i64
  %21 = getelementptr inbounds nuw [1 x %struct.dasm_Section], ptr %19, i64 0, i64 %20
  %.not = icmp eq ptr %18, %21
  br i1 %.not, label %.loopexit.thread, label %22

22:                                               ; preds = %16
  %23 = ptrtoint ptr %18 to i64
  %24 = ptrtoint ptr %19 to i64
  %25 = sub i64 %23, %24
  %26 = sdiv exact i64 %25, 40
  br label %.loopexit.thread.sink.split

.loopexit.thread.sink.split:                      ; preds = %9, %22
  %indvars.iv.lcssa.sink = phi i64 [ %26, %22 ], [ %indvars.iv, %9 ]
  %.sink28 = phi i32 [ 50331648, %22 ], [ 553648128, %9 ]
  %27 = trunc i64 %indvars.iv.lcssa.sink to i32
  %28 = or i32 %.sink28, %27
  store i32 %28, ptr %4, align 4, !tbaa !34
  br label %.loopexit.thread

.loopexit.thread:                                 ; preds = %.loopexit.thread.sink.split, %2, %16, %.loopexit
  %29 = phi i32 [ 0, %16 ], [ %.pre, %.loopexit ], [ %5, %2 ], [ %28, %.loopexit.thread.sink.split ]
  ret i32 %29
}